; Function Attrs: nounwind uwtable
define dso_local void @Curl_debug(ptr noundef %0, i32 noundef %1, ptr noundef %2, i64 noundef %3) local_unnamed_addr #0 {
  %5 = getelementptr inbounds nuw i8, ptr %0, i64 456
  %6 = getelementptr inbounds nuw i8, ptr %0, i64 2562
  %7 = load i64, ptr %6, align 2
  %8 = and i64 %7, 134217728
  %.not = icmp eq i64 %8, 0
  br i1 %.not, label %26, label %9

9:                                                ; preds = %4
  %10 = getelementptr inbounds nuw i8, ptr %0, i64 616
  %11 = load ptr, ptr %10, align 8, !tbaa !4
  %.not17 = icmp eq ptr %11, null
  br i1 %.not17, label %18, label %12

12:                                               ; preds = %9
  %13 = tail call zeroext i1 @Curl_is_in_callback(ptr noundef nonnull %0) #8
  tail call void @Curl_set_in_callback(ptr noundef nonnull %0, i1 noundef zeroext true) #8
  %14 = load ptr, ptr %10, align 8, !tbaa !4
  %15 = getelementptr inbounds nuw i8, ptr %0, i64 464
  %16 = load ptr, ptr %15, align 8, !tbaa !77
  %17 = tail call i32 %14(ptr noundef nonnull %0, i32 noundef %1, ptr noundef %2, i64 noundef %3, ptr noundef %16) #8
  tail call void @Curl_set_in_callback(ptr noundef nonnull %0, i1 noundef zeroext %13) #8
  br label %26

18:                                               ; preds = %9
  %switch = icmp ult i32 %1, 3
  br i1 %switch, label %19, label %26

19:                                               ; preds = %18
  %20 = zext nneg i32 %1 to i64
  %21 = getelementptr inbounds nuw [7 x [3 x i8]], ptr @Curl_debug.s_infotype, i64 0, i64 %20
  %22 = load ptr, ptr %5, align 8, !tbaa !78
  %23 = tail call i64 @fwrite(ptr noundef nonnull %21, i64 noundef 2, i64 noundef 1, ptr noundef %22)
  %24 = load ptr, ptr %5, align 8, !tbaa !78
  %25 = tail call i64 @fwrite(ptr noundef %2, i64 noundef %3, i64 noundef 1, ptr noundef %24)
  br label %26

26:                                               ; preds = %18, %12, %19, %4
  ret void
}